; Function Attrs: mustprogress nofree norecurse nosync nounwind willreturn memory(read, argmem: readwrite, inaccessiblemem: none) uwtable
define hidden void @_ZNK19OpenColorIO_v2_4dev31ExponentWithLinearTransformImpl9getOffsetERA4_d(ptr nocapture noundef nonnull readonly align 8 dereferenceable(280) %this, ptr nocapture noundef nonnull writeonly align 8 dereferenceable(32) %values) unnamed_addr #12 align 2 personality ptr @__gxx_personality_v0 {
entry:
  %m_redParams.i = getelementptr inbounds i8, ptr %this, i64 184
  %_M_finish.i = getelementptr inbounds i8, ptr %this, i64 192
  %0 = load ptr, ptr %_M_finish.i, align 8
  %1 = load ptr, ptr %m_redParams.i, align 8
  %sub.ptr.lhs.cast.i = ptrtoint ptr %0 to i64
  %sub.ptr.rhs.cast.i = ptrtoint ptr %1 to i64
  %sub.ptr.sub.i = sub i64 %sub.ptr.lhs.cast.i, %sub.ptr.rhs.cast.i
  %cmp = icmp eq i64 %sub.ptr.sub.i, 16
  br i1 %cmp, label %cond.true, label %cond.end

cond.true:                                        ; preds = %entry
  %add.ptr.i = getelementptr inbounds i8, ptr %1, i64 8
  %2 = load double, ptr %add.ptr.i, align 8
  br label %cond.end

cond.end:                                         ; preds = %entry, %cond.true
  %cond = phi double [ %2, %cond.true ], [ 0.000000e+00, %entry ]
  store double %cond, ptr %values, align 8
  %m_greenParams.i = getelementptr inbounds i8, ptr %this, i64 208
  %_M_finish.i7 = getelementptr inbounds i8, ptr %this, i64 216
  %3 = load ptr, ptr %_M_finish.i7, align 8
  %4 = load ptr, ptr %m_greenParams.i, align 8
  %sub.ptr.lhs.cast.i8 = ptrtoint ptr %3 to i64
  %sub.ptr.rhs.cast.i9 = ptrtoint ptr %4 to i64
  %sub.ptr.sub.i10 = sub i64 %sub.ptr.lhs.cast.i8, %sub.ptr.rhs.cast.i9
  %cmp12 = icmp eq i64 %sub.ptr.sub.i10, 16
  br i1 %cmp12, label %cond.true13, label %cond.end19

cond.true13:                                      ; preds = %cond.end
  %add.ptr.i14 = getelementptr inbounds i8, ptr %4, i64 8
  %5 = load double, ptr %add.ptr.i14, align 8
  br label %cond.end19

cond.end19:                                       ; preds = %cond.end, %cond.true13
  %cond20 = phi double [ %5, %cond.true13 ], [ 0.000000e+00, %cond.end ]
  %arrayidx21 = getelementptr inbounds i8, ptr %values, i64 8
  store double %cond20, ptr %arrayidx21, align 8
  %m_blueParams.i = getelementptr inbounds i8, ptr %this, i64 232
  %_M_finish.i16 = getelementptr inbounds i8, ptr %this, i64 240
  %6 = load ptr, ptr %_M_finish.i16, align 8
  %7 = load ptr, ptr %m_blueParams.i, align 8
  %sub.ptr.lhs.cast.i17 = ptrtoint ptr %6 to i64
  %sub.ptr.rhs.cast.i18 = ptrtoint ptr %7 to i64
  %sub.ptr.sub.i19 = sub i64 %sub.ptr.lhs.cast.i17, %sub.ptr.rhs.cast.i18
  %cmp26 = icmp eq i64 %sub.ptr.sub.i19, 16
  br i1 %cmp26, label %cond.true27, label %cond.end33

cond.true27:                                      ; preds = %cond.end19
  %add.ptr.i23 = getelementptr inbounds i8, ptr %7, i64 8
  %8 = load double, ptr %add.ptr.i23, align 8
  br label %cond.end33

cond.end33:                                       ; preds = %cond.end19, %cond.true27
  %cond34 = phi double [ %8, %cond.true27 ], [ 0.000000e+00, %cond.end19 ]
  %arrayidx35 = getelementptr inbounds i8, ptr %values, i64 16
  store double %cond34, ptr %arrayidx35, align 8
  %m_alphaParams.i = getelementptr inbounds i8, ptr %this, i64 256
  %_M_finish.i25 = getelementptr inbounds i8, ptr %this, i64 264
  %9 = load ptr, ptr %_M_finish.i25, align 8
  %10 = load ptr, ptr %m_alphaParams.i, align 8
  %sub.ptr.lhs.cast.i26 = ptrtoint ptr %9 to i64
  %sub.ptr.rhs.cast.i27 = ptrtoint ptr %10 to i64
  %sub.ptr.sub.i28 = sub i64 %sub.ptr.lhs.cast.i26, %sub.ptr.rhs.cast.i27
  %cmp40 = icmp eq i64 %sub.ptr.sub.i28, 16
  br i1 %cmp40, label %cond.true41, label %cond.end47

cond.true41:                                      ; preds = %cond.end33
  %add.ptr.i32 = getelementptr inbounds i8, ptr %10, i64 8
  %11 = load double, ptr %add.ptr.i32, align 8
  br label %cond.end47

cond.end47:                                       ; preds = %cond.end33, %cond.true41
  %cond48 = phi double [ %11, %cond.true41 ], [ 0.000000e+00, %cond.end33 ]
  %arrayidx49 = getelementptr inbounds i8, ptr %values, i64 24
  store double %cond48, ptr %arrayidx49, align 8
  ret void
}